; Function Attrs: nounwind sspstrong uwtable
define internal noundef ptr @lazy_zip_arrays_func(i64 noundef %0, ptr noundef returned %1, i64 noundef %2, i64 noundef %3) #0 {
  %5 = tail call ptr @rb_check_typeddata(i64 noundef %0, ptr noundef nonnull @proc_entry_data_type) #18
  %6 = getelementptr inbounds nuw i8, ptr %5, i64 8
  %7 = load i64, ptr %6, align 8, !tbaa !94
  %8 = tail call i64 @rb_ary_entry(i64 noundef %2, i64 noundef %3) #25
  %9 = icmp eq i64 %8, 4
  br i1 %9, label %rb_num2long_inline.exit, label %10

10:                                               ; preds = %4
  %11 = and i64 %8, 1
  %.not.i = icmp eq i64 %11, 0
  br i1 %.not.i, label %14, label %12

12:                                               ; preds = %10
  %13 = ashr i64 %8, 1
  br label %rb_num2long_inline.exit

14:                                               ; preds = %10
  %15 = tail call i64 @rb_num2long(i64 noundef %8) #18
  br label %rb_num2long_inline.exit

rb_num2long_inline.exit:                          ; preds = %14, %12, %4
  %16 = phi i64 [ 0, %4 ], [ %13, %12 ], [ %15, %14 ]
  %17 = inttoptr i64 %7 to ptr
  %18 = load i64, ptr %17, align 8, !tbaa !21
  %19 = and i64 %18, 8192
  %.not.i21 = icmp eq i64 %19, 0
  br i1 %.not.i21, label %23, label %20

20:                                               ; preds = %rb_num2long_inline.exit
  %21 = lshr i64 %18, 15
  %22 = and i64 %21, 127
  br label %rb_array_len.exit

23:                                               ; preds = %rb_num2long_inline.exit
  %24 = getelementptr inbounds nuw i8, ptr %17, i64 16
  %25 = load i64, ptr %24, align 8, !tbaa !44
  br label %rb_array_len.exit

rb_array_len.exit:                                ; preds = %20, %23
  %.0.i22 = phi i64 [ %22, %20 ], [ %25, %23 ]
  %26 = add i64 %.0.i22, 1
  %27 = tail call i64 @rb_ary_new_capa(i64 noundef %26) #18
  %28 = getelementptr inbounds nuw i8, ptr %1, i64 24
  %29 = load i64, ptr %28, align 8, !tbaa !105
  %30 = tail call i64 @rb_ary_push(i64 noundef %27, i64 noundef %29) #18
  %31 = getelementptr inbounds nuw i8, ptr %17, i64 16
  %32 = getelementptr inbounds nuw i8, ptr %17, i64 32
  br label %33

33:                                               ; preds = %RARRAY_AREF.exit, %rb_array_len.exit
  %.0 = phi i64 [ 0, %rb_array_len.exit ], [ %47, %RARRAY_AREF.exit ]
  %34 = load i64, ptr %17, align 8, !tbaa !21
  %35 = and i64 %34, 8192
  %.not.i23 = icmp eq i64 %35, 0
  br i1 %.not.i23, label %rb_array_len.exit25, label %rb_array_len.exit25.thread

rb_array_len.exit25:                              ; preds = %33
  %36 = load i64, ptr %31, align 8, !tbaa !44
  %37 = icmp slt i64 %.0, %36
  br i1 %37, label %41, label %48

rb_array_len.exit25.thread:                       ; preds = %33
  %38 = lshr i64 %34, 15
  %39 = and i64 %38, 127
  %40 = icmp samesign ult i64 %.0, %39
  br i1 %40, label %RARRAY_AREF.exit, label %48

41:                                               ; preds = %rb_array_len.exit25
  %42 = load ptr, ptr %32, align 8, !tbaa !44
  br label %RARRAY_AREF.exit

RARRAY_AREF.exit:                                 ; preds = %rb_array_len.exit25.thread, %41
  %.0.i.i = phi ptr [ %42, %41 ], [ %31, %rb_array_len.exit25.thread ]
  %43 = getelementptr i64, ptr %.0.i.i, i64 %.0
  %44 = load i64, ptr %43, align 8, !tbaa !7
  %45 = tail call i64 @rb_ary_entry(i64 noundef %44, i64 noundef %16) #25
  %46 = tail call i64 @rb_ary_push(i64 noundef %27, i64 noundef %45) #18
  %47 = add nuw nsw i64 %.0, 1
  br label %33, !llvm.loop !113

48:                                               ; preds = %rb_array_len.exit25.thread, %rb_array_len.exit25
  store i64 %27, ptr %28, align 8, !tbaa !7
  %49 = icmp eq i64 %27, 0
  %50 = and i64 %27, 7
  %51 = icmp ne i64 %50, 0
  %52 = or i1 %49, %51
  br i1 %52, label %MEMO_V2_SET.exit, label %53

53:                                               ; preds = %48
  %54 = ptrtoint ptr %1 to i64
  tail call void @rb_gc_writebarrier(i64 noundef %54, i64 noundef %27) #18
  br label %MEMO_V2_SET.exit

MEMO_V2_SET.exit:                                 ; preds = %48, %53
  %55 = add i64 %16, 1
  %56 = add i64 %16, 4611686018427387905
  %or.cond.i = icmp sgt i64 %56, -1
  br i1 %or.cond.i, label %57, label %60

57:                                               ; preds = %MEMO_V2_SET.exit
  %58 = shl nsw i64 %55, 1
  %59 = or disjoint i64 %58, 1
  br label %rb_long2num_inline.exit

60:                                               ; preds = %MEMO_V2_SET.exit
  %61 = tail call i64 @rb_int2big(i64 noundef %55) #18
  br label %rb_long2num_inline.exit

rb_long2num_inline.exit:                          ; preds = %57, %60
  %.0.i26 = phi i64 [ %59, %57 ], [ %61, %60 ]
  tail call void @rb_ary_store(i64 noundef %2, i64 noundef %3, i64 noundef %.0.i26) #18
  ret ptr %1
}